ccopy_reg
_reconstructor
p0
(csklearn.linear_model.logistic
LogisticRegression
p1
c__builtin__
object
p2
Ntp3
Rp4
(dp5
S'warm_start'
p6
I00
sS'C'
p7
I100
sS'classes_'
p8
cnumpy.core.multiarray
_reconstruct
p9
(cnumpy
ndarray
p10
(I0
tp11
S'b'
p12
tp13
Rp14
(I1
(I2
tp15
cnumpy
dtype
p16
(S'f8'
p17
I0
I1
tp18
Rp19
(I3
S'<'
p20
NNNI-1
I-1
I0
tp21
bI00
S'\x00\x00\x00\x00\x00\x00\x00\x00\x00\x00\x00\x00\x00\x00\xf0?'
p22
tp23
bsS'n_jobs'
p24
I1
sS'verbose'
p25
I0
sS'fit_intercept'
p26
I01
sS'max_iter'
p27
I100
sS'class_weight'
p28
S'balanced'
p29
sS'n_iter_'
p30
g9
(g10
(I0
tp31
g12
tp32
Rp33
(I1
(I1
tp34
g16
(S'i4'
p35
I0
I1
tp36
Rp37
(I3
S'<'
p38
NNNI-1
I-1
I0
tp39
bI00
S'+\x00\x00\x00'
p40
tp41
bsS'intercept_'
p42
g9
(g10
(I0
tp43
g12
tp44
Rp45
(I1
(I1
tp46
g19
I00
S'L?\xaa\x1c\x1ch\xff\xbf'
p47
tp48
bsS'penalty'
p49
S'l1'
p50
sS'multi_class'
p51
S'ovr'
p52
sS'random_state'
p53
NsS'_sklearn_version'
p54
S'0.18'
p55
sS'dual'
p56
I00
sS'tol'
p57
F0.0001
sS'coef_'
p58
g9
(g10
(I0
tp59
g12
tp60
Rp61
(I1
(I1
I7
tp62
g19
I01
S'\x02\xc5\x03\xbd``\xd0\xbeJ\xadZVC\x1b\xcd\xbe\xec\xd5^\xf5\xa4<\x94\xbf\xfe\xba\r\xf6\xcb\x84\x82?#\xbf\xc3\xda\xdb\x14\xbb?_KKZ;uX?\x1a\xcf\x18\x86\x19^A\xbf'
p63
tp64
bsS'solver'
p65
S'liblinear'
p66
sS'intercept_scaling'
p67
I1
sb.