(dp0
S'METTS MARK'
p1
(dp2
S'to_messages'
p3
I807
sS'deferral_payments'
p4
S'NaN'
p5
sS'expenses'
p6
I94299
sS'poi'
p7
I00
sS'deferred_income'
p8
g5
sS'email_address'
p9
S'mark.metts@enron.com'
p10
sS'long_term_incentive'
p11
g5
sS'restricted_stock_deferred'
p12
g5
sS'ratio_salary_total_payments'
p13
F0.34448926237513267
sS'shared_receipt_with_poi'
p14
I702
sS'loan_advances'
p15
g5
sS'from_messages'
p16
I29
sS'other'
p17
I1740
sS'director_fees'
p18
g5
sS'bonus'
p19
I600000
sS'ratio_poi_messages'
p20
F0.8863636363636364
sS'total_stock_value'
p21
I585062
sS'from_poi_to_this_person'
p22
I38
sS'deferral_payments_log'
p23
S'NaN'
p24
sS'from_this_person_to_poi'
p25
I1
sS'restricted_stock'
p26
I585062
sS'salary'
p27
I365788
sS'total_payments'
p28
I1061827
sS'exercised_stock_options'
p29
g5
sS'ratio_bonus_total_payments'
p30
F0.5650638004119315
sS'deferred_income_log'
p31
g24
ssS'BAXTER JOHN C'
p32
(dp33
g3
g5
sg4
I1295738
sg6
I11200
sg7
I00
sg8
I-1386055
sg9
g5
sg11
I1586055
sg12
g5
sg13
F0.047406059588491506
sg14
g5
sg15
g5
sg16
g5
sg17
I2660303
sg18
g5
sg19
I1200000
sg20
g24
sg21
I10623258
sg22
g5
sS'deferral_payments_log'
p34
F14.074591746724003
sg25
g5
sg26
I3942714
sg27
I267102
sg28
I5634343
sg29
I6680544
sg30
F0.21297957898551792
sS'deferred_income_log'
p35
g24
ssS'ELLIOTT STEVEN'
p36
(dp37
g3
g5
sg4
g5
sg6
I78552
sg7
I00
sg8
I-400729
sg9
S'steven.elliott@enron.com'
p38
sg11
g5
sg12
g5
sg13
F0.8073727712835046
sg14
g5
sg15
g5
sg16
g5
sg17
I12961
sg18
g5
sg19
I350000
sg20
g24
sg21
I6678735
sg22
g5
sS'deferral_payments_log'
p39
g24
sg25
g5
sg26
I1788391
sg27
I170941
sg28
I211725
sg29
I4890344
sg30
F1.6530877317274766
sS'deferred_income_log'
p40
g24
ssS'CORDES WILLIAM R'
p41
(dp42
g3
I764
sg4
g5
sg6
g5
sg7
I00
sg8
g5
sg9
S'bill.cordes@enron.com'
p43
sg11
g5
sg12
g5
sg13
g24
sg14
I58
sg15
g5
sg16
I12
sg17
g5
sg18
g5
sg19
g5
sg20
F0.08762886597938144
sg21
I1038185
sg22
I10
sS'deferral_payments_log'
p44
g24
sg25
I0
sg26
I386335
sg27
g5
sg28
I0
sg29
I651850
sg30
g24
sS'deferred_income_log'
p45
g24
ssS'HANNON KEVIN P'
p46
(dp47
g3
I1045
sg4
g5
sg6
I34039
sg7
I01
sg8
I-3117011
sg9
S'kevin.hannon@enron.com'
p48
sg11
I1617011
sg12
g5
sg13
F0.8427716310680957
sg14
I1035
sg15
g5
sg16
I32
sg17
I11350
sg18
g5
sg19
I1500000
sg20
F1.0102135561745589
sg21
I6391065
sg22
I32
sS'deferral_payments_log'
p49
g24
sg25
I21
sg26
I853064
sg27
I243293
sg28
I288682
sg29
I5538001
sg30
F5.196028848352166
sS'deferred_income_log'
p50
g24
ssS'MORDAUNT KRISTINA M'
p51
(dp52
g3
g5
sg4
g5
sg6
I35018
sg7
I00
sg8
g5
sg9
S'kristina.mordaunt@enron.com'
p53
sg11
g5
sg12
g5
sg13
F0.42495409866321304
sg14
g5
sg15
g5
sg16
g5
sg17
I1411
sg18
g5
sg19
I325000
sg20
g24
sg21
I208510
sg22
g5
sS'deferral_payments_log'
p54
g24
sg25
g5
sg26
I208510
sg27
I267093
sg28
I628522
sg29
g5
sg30
F0.5170861163173286
sS'deferred_income_log'
p55
g24
ssS'MEYER ROCKFORD G'
p56
(dp57
g3
I232
sg4
I1848227
sg6
g5
sg7
I00
sg8
g5
sg9
S'rockford.meyer@enron.com'
p58
sg11
g5
sg12
g5
sg13
g24
sg14
I22
sg15
g5
sg16
I28
sg17
g5
sg18
g5
sg19
g5
sg20
F0.08461538461538462
sg21
I955873
sg22
I0
sS'deferral_payments_log'
p59
F14.429737900196873
sg25
I0
sg26
I462384
sg27
g5
sg28
I1848227
sg29
I493489
sg30
g24
sS'deferred_income_log'
p60
g24
ssS'MCMAHON JEFFREY'
p61
(dp62
g3
I2355
sg4
g5
sg6
I137108
sg7
I00
sg8
g5
sg9
S'jeffrey.mcmahon@enron.com'
p63
sg11
I694862
sg12
g5
sg13
F0.09035821756873738
sg14
I2228
sg15
g5
sg16
I48
sg17
I297353
sg18
g5
sg19
I2600000
sg20
F0.9621306699958385
sg21
I1662855
sg22
I58
sS'deferral_payments_log'
p64
g24
sg25
I26
sg26
I558801
sg27
I370448
sg28
I4099771
sg29
I1104054
sg30
F0.6341817628350461
sS'deferred_income_log'
p65
g24
ssS'HORTON STANLEY C'
p66
(dp67
g3
I2350
sg4
I3131860
sg6
g5
sg7
I00
sg8
g5
sg9
S'stanley.horton@enron.com'
p68
sg11
g5
sg12
g5
sg13
g24
sg14
I1074
sg15
g5
sg16
I1073
sg17
g5
sg18
g5
sg19
g5
sg20
F0.33099620216184633
sg21
I7256648
sg22
I44
sS'deferral_payments_log'
p69
F14.9571379545205
sg25
I15
sg26
I2046079
sg27
g5
sg28
I3131860
sg29
I5210569
sg30
g24
sS'deferred_income_log'
p70
g24
ssS'PIPER GREGORY F'
p71
(dp72
g3
I1238
sg4
I1130036
sg6
I43057
sg7
I00
sg8
I-33333
sg9
S'greg.piper@enron.com'
p73
sg11
g5
sg12
I-409554
sg13
F0.11342524785210191
sg14
I742
sg15
g5
sg16
I222
sg17
I778
sg18
g5
sg19
I400000
sg20
F0.5828767123287671
sg21
I880290
sg22
I61
sS'deferral_payments_log'
p74
F13.937760933515303
sg25
I48
sg26
I409554
sg27
I197091
sg28
I1737629
sg29
I880290
sg30
F0.23019873632403695
sS'deferred_income_log'
p75
g24
ssS'HUMPHREY GENE E'
p76
(dp77
g3
I128
sg4
I2964506
sg6
I4994
sg7
I00
sg8
g5
sg9
S'gene.humphrey@enron.com'
p78
sg11
g5
sg12
g5
sg13
F0.04216598542556925
sg14
I119
sg15
g5
sg16
I17
sg17
g5
sg18
g5
sg19
g5
sg20
F1.006896551724138
sg21
I2282768
sg22
I10
sS'deferral_payments_log'
p79
F14.902221303401861
sg25
I17
sg26
g5
sg27
I130724
sg28
I3100224
sg29
I2282768
sg30
g24
sS'deferred_income_log'
p80
g24
ssS'UMANOFF ADAM S'
p81
(dp82
g3
I111
sg4
g5
sg6
I53122
sg7
I00
sg8
g5
sg9
S'adam.umanoff@enron.com'
p83
sg11
g5
sg12
g5
sg13
F0.2552843485976075
sg14
I41
sg15
g5
sg16
I18
sg17
g5
sg18
g5
sg19
I788750
sg20
F0.4108527131782946
sg21
g5
sg22
I12
sS'deferral_payments_log'
p84
g24
sg25
I0
sg26
g5
sg27
I288589
sg28
I1130461
sg29
g5
sg30
F0.6977242027809893
sS'deferred_income_log'
p85
g24
ssS'BLACHMAN JEREMY M'
p86
(dp87
g3
I2475
sg4
g5
sg6
I84208
sg7
I00
sg8
g5
sg9
S'jeremy.blachman@enron.com'
p88
sg11
I831809
sg12
g5
sg13
F0.12335799209364538
sg14
I2326
sg15
g5
sg16
I14
sg17
I272
sg18
g5
sg19
I850000
sg20
F0.9453595821615106
sg21
I954354
sg22
I25
sS'deferral_payments_log'
p89
g24
sg25
I2
sg26
I189041
sg27
I248546
sg28
I2014835
sg29
I765313
sg30
F0.4218707735372872
sS'deferred_income_log'
p90
g24
ssS'SUNDE MARTIN'
p91
(dp92
g3
I2647
sg4
g5
sg6
g5
sg7
I00
sg8
g5
sg9
S'marty.sunde@enron.com'
p93
sg11
I476451
sg12
g5
sg13
F0.16665124115001434
sg14
I2565
sg15
g5
sg16
I38
sg17
I111122
sg18
g5
sg19
I700000
sg20
F0.9739292364990689
sg21
I698920
sg22
I37
sS'deferral_payments_log'
p94
g24
sg25
I13
sg26
I698920
sg27
I257486
sg28
I1545059
sg29
g5
sg30
F0.4530571324460749
sS'deferred_income_log'
p95
g24
ssS'GIBBS DANA R'
p96
(dp97
g3
I169
sg4
I504610
sg6
g5
sg7
I00
sg8
g5
sg9
S'dana.gibbs@enron.com'
p98
sg11
I461912
sg12
g5
sg13
g24
sg14
I23
sg15
g5
sg16
I12
sg17
g5
sg18
g5
sg19
g5
sg20
F0.1270718232044199
sg21
I2218275
sg22
I0
sS'deferral_payments_log'
p99
F13.131543114396594
sg25
I0
sg26
g5
sg27
g5
sg28
I966522
sg29
I2218275
sg30
g24
sS'deferred_income_log'
p100
g24
ssS'LOWRY CHARLES P'
p101
(dp102
g3
g5
sg4
g5
sg6
g5
sg7
I00
sg8
g5
sg9
g5
sg11
g5
sg12
I-153686
sg13
g24
sg14
g5
sg15
g5
sg16
g5
sg17
g5
sg18
g5
sg19
g5
sg20
g24
sg21
I372205
sg22
g5
sS'deferral_payments_log'
p103
g24
sg25
g5
sg26
I153686
sg27
g5
sg28
I0
sg29
I372205
sg30
g24
sS'deferred_income_log'
p104
g24
ssS'COLWELL WESLEY'
p105
(dp106
g3
I1758
sg4
I27610
sg6
I16514
sg7
I01
sg8
I-144062
sg9
S'wes.colwell@enron.com'
p107
sg11
g5
sg12
g5
sg13
F0.19360765031428986
sg14
I1132
sg15
g5
sg16
I40
sg17
I101740
sg18
g5
sg19
I1200000
sg20
F0.7691879866518354
sg21
I698242
sg22
I240
sS'deferral_payments_log'
p108
F10.225969523029635
sg25
I11
sg26
I698242
sg27
I288542
sg28
I1490344
sg29
g5
sg30
F0.8051832328643588
sS'deferred_income_log'
p109
g24
ssS'MULLER MARK S'
p110
(dp111
g3
I136
sg4
I842924
sg6
g5
sg7
I00
sg8
I-719000
sg9
S's..muller@enron.com'
p112
sg11
I1725545
sg12
g5
sg13
F0.07859103642331366
sg14
I114
sg15
g5
sg16
I16
sg17
I947
sg18
g5
sg19
I1100000
sg20
F0.8289473684210527
sg21
I1416848
sg22
I12
sS'deferral_payments_log'
p113
F13.644633265054578
sg25
I0
sg26
I360528
sg27
I251654
sg28
I3202070
sg29
I1056320
sg30
F0.3435277804670104
sS'deferred_income_log'
p114
g24
ssS'JACKSON CHARLENE R'
p115
(dp116
g3
I258
sg4
g5
sg6
I10181
sg7
I00
sg8
g5
sg9
S'charlene.jackson@enron.com'
p117
sg11
g5
sg12
g5
sg13
F0.5235334032447104
sg14
I117
sg15
g5
sg16
I56
sg17
I2435
sg18
g5
sg19
I250000
sg20
F0.5127388535031847
sg21
I725735
sg22
I25
sS'deferral_payments_log'
p118
g24
sg25
I19
sg26
I540672
sg27
I288558
sg28
I551174
sg29
I185063
sg30
F0.453577273238578
sS'deferred_income_log'
p119
g24
ssS'WESTFAHL RICHARD K'
p120
(dp121
g3
g5
sg4
g5
sg6
I51870
sg7
I00
sg8
I-10800
sg9
S'dick.westfahl@enron.com'
p122
sg11
I256191
sg12
g5
sg13
F0.08363872542266133
sg14
g5
sg15
g5
sg16
g5
sg17
I401130
sg18
g5
sg19
g5
sg20
g24
sg21
I384930
sg22
g5
sS'deferral_payments_log'
p123
g24
sg25
g5
sg26
I384930
sg27
I63744
sg28
I762135
sg29
g5
sg30
g24
sS'deferred_income_log'
p124
g24
ssS'WALTERS GARETH W'
p125
(dp126
g3
g5
sg4
I53625
sg6
I33785
sg7
I00
sg8
g5
sg9
g5
sg11
g5
sg12
g5
sg13
g24
sg14
g5
sg15
g5
sg16
g5
sg17
g5
sg18
g5
sg19
g5
sg20
g24
sg21
I1030329
sg22
g5
sS'deferral_payments_log'
p127
F10.889789304075094
sg25
g5
sg26
g5
sg27
g5
sg28
I87410
sg29
I1030329
sg30
g24
sS'deferred_income_log'
p128
g24
ssS'WALLS JR ROBERT H'
p129
(dp130
g3
I671
sg4
g5
sg6
I50936
sg7
I00
sg8
g5
sg9
S'rob.walls@enron.com'
p131
sg11
I540751
sg12
g5
sg13
F0.1985184402761872
sg14
I215
sg15
g5
sg16
I146
sg17
I2
sg18
g5
sg19
I850000
sg20
F0.2839657282741738
sg21
I5898997
sg22
I17
sS'deferral_payments_log'
p132
g24
sg25
I0
sg26
I1552453
sg27
I357091
sg28
I1798780
sg29
I4346544
sg30
F0.47254250102847484
sS'deferred_income_log'
p133
g24
ssS'KITCHEN LOUISE'
p134
(dp135
g3
I8305
sg4
g5
sg6
I5774
sg7
I00
sg8
g5
sg9
S'louise.kitchen@enron.com'
p136
sg11
g5
sg12
g5
sg13
F0.07819964674439903
sg14
I3669
sg15
g5
sg16
I1728
sg17
I93925
sg18
g5
sg19
I3100000
sg20
F0.4100468454101465
sg21
I547143
sg22
I251
sS'deferral_payments_log'
p137
g24
sg25
I194
sg26
I466101
sg27
I271442
sg28
I3471141
sg29
I81042
sg30
F0.8930780973748977
sS'deferred_income_log'
p138
g24
ssS'CHAN RONNIE'
p139
(dp140
g3
g5
sg4
g5
sg6
g5
sg7
I00
sg8
I-98784
sg9
g5
sg11
g5
sg12
I-32460
sg13
g24
sg14
g5
sg15
g5
sg16
g5
sg17
g5
sg18
I98784
sg19
g5
sg20
g24
sg21
g5
sg22
g5
sS'deferral_payments_log'
p141
g24
sg25
g5
sg26
I32460
sg27
g5
sg28
I0
sg29
g5
sg30
g24
sS'deferred_income_log'
p142
g24
ssS'BELFER ROBERT'
p143
(dp144
g3
g5
sg4
I-102500
sg6
g5
sg7
I00
sg8
g5
sg9
g5
sg11
g5
sg12
I44093
sg13
g24
sg14
g5
sg15
g5
sg16
g5
sg17
g5
sg18
I3285
sg19
g5
sg20
g24
sg21
I-44093
sg22
g5
sS'deferral_payments_log'
p145
g24
sg25
g5
sg26
g5
sg27
g5
sg28
I102500
sg29
I3285
sg30
g24
sS'deferred_income_log'
p146
g24
ssS'SHANKMAN JEFFREY A'
p147
(dp148
g3
I3221
sg4
g5
sg6
I178979
sg7
I00
sg8
g5
sg9
S'jeffrey.shankman@enron.com'
p149
sg11
I554422
sg12
g5
sg13
F0.10007891527369252
sg14
I1730
sg15
g5
sg16
I2681
sg17
I1191
sg18
g5
sg19
I2000000
sg20
F0.3231108098949509
sg21
I2072035
sg22
I94
sS'deferral_payments_log'
p150
g24
sg25
I83
sg26
I630137
sg27
I304110
sg28
I3038702
sg29
I1441898
sg30
F0.6581757605714545
sS'deferred_income_log'
p151
g24
ssS'WODRASKA JOHN'
p152
(dp153
g3
g5
sg4
g5
sg6
g5
sg7
I00
sg8
g5
sg9
S'john.wodraska@enron.com'
p154
sg11
g5
sg12
g5
sg13
g24
sg14
g5
sg15
g5
sg16
g5
sg17
I189583
sg18
g5
sg19
g5
sg20
g24
sg21
g5
sg22
g5
sS'deferral_payments_log'
p155
g24
sg25
g5
sg26
g5
sg27
g5
sg28
I189583
sg29
g5
sg30
g24
sS'deferred_income_log'
p156
g24
ssS'BERGSIEKER RICHARD P'
p157
(dp158
g3
I383
sg4
g5
sg6
I59175
sg7
I00
sg8
I-485813
sg9
S'rick.bergsieker@enron.com'
p159
sg11
I180250
sg12
g5
sg13
F0.3036632463440252
sg14
I233
sg15
g5
sg16
I59
sg17
I427316
sg18
g5
sg19
I250000
sg20
F0.5361990950226244
sg21
I659249
sg22
I4
sS'deferral_payments_log'
p160
g24
sg25
I0
sg26
I659249
sg27
I187922
sg28
I618850
sg29
g5
sg30
F0.4039751151329078
sS'deferred_income_log'
p161
g24
ssS'URQUHART JOHN A'
p162
(dp163
g3
g5
sg4
g5
sg6
I228656
sg7
I00
sg8
I-36666
sg9
g5
sg11
g5
sg12
g5
sg13
g24
sg14
g5
sg15
g5
sg16
g5
sg17
g5
sg18
I36666
sg19
g5
sg20
g24
sg21
g5
sg22
g5
sS'deferral_payments_log'
p164
g24
sg25
g5
sg26
g5
sg27
g5
sg28
I228656
sg29
g5
sg30
g24
sS'deferred_income_log'
p165
g24
ssS'BIBI PHILIPPE A'
p166
(dp167
g3
I1607
sg4
g5
sg6
I38559
sg7
I00
sg8
g5
sg9
S'philippe.bibi@enron.com'
p168
sg11
I369721
sg12
g5
sg13
F0.10432981554439774
sg14
I1336
sg15
g5
sg16
I40
sg17
I425688
sg18
g5
sg19
I1000000
sg20
F0.8299939283545841
sg21
I1843816
sg22
I23
sS'deferral_payments_log'
p169
g24
sg25
I8
sg26
I378082
sg27
I213625
sg28
I2047593
sg29
I1465734
sg30
F0.4883783056496091
sS'deferred_income_log'
p170
g24
ssS'RIEKER PAULA H'
p171
(dp172
g3
I1328
sg4
I214678
sg6
I33271
sg7
I01
sg8
I-100000
sg9
S'paula.rieker@enron.com'
p173
sg11
g5
sg12
g5
sg13
F0.22673187153125285
sg14
I1258
sg15
g5
sg16
I82
sg17
I1950
sg18
g5
sg19
I700000
sg20
F0.951063829787234
sg21
I1918887
sg22
I35
sS'deferral_payments_log'
p174
F12.276899168184146
sg25
I48
sg26
I283649
sg27
I249201
sg28
I1099100
sg29
I1635238
sg30
F0.6368847238649804
sS'deferred_income_log'
p175
g24
ssS'WHALEY DAVID A'
p176
(dp177
g3
g5
sg4
g5
sg6
g5
sg7
I00
sg8
g5
sg9
g5
sg11
g5
sg12
g5
sg13
g24
sg14
g5
sg15
g5
sg16
g5
sg17
g5
sg18
g5
sg19
g5
sg20
g24
sg21
I98718
sg22
g5
sS'deferral_payments_log'
p178
g24
sg25
g5
sg26
g5
sg27
g5
sg28
I0
sg29
I98718
sg30
g24
sS'deferred_income_log'
p179
g24
ssS'BECK SALLY W'
p180
(dp181
g3
I7315
sg4
g5
sg6
I37172
sg7
I00
sg8
g5
sg9
S'sally.beck@enron.com'
p182
sg11
g5
sg12
g5
sg13
F0.23871389830228631
sg14
I2639
sg15
g5
sg16
I4343
sg17
I566
sg18
g5
sg19
I700000
sg20
F0.2718305026591182
sg21
I126027
sg22
I144
sS'deferral_payments_log'
p183
g24
sg25
I386
sg26
I126027
sg27
I231330
sg28
I969068
sg29
g5
sg30
F0.7223435300721931
sS'deferred_income_log'
p184
g24
ssS'HAUG DAVID L'
p185
(dp186
g3
I573
sg4
g5
sg6
I475
sg7
I00
sg8
g5
sg9
S'david.haug@enron.com'
p187
sg11
g5
sg12
g5
sg13
g24
sg14
I471
sg15
g5
sg16
I19
sg17
g5
sg18
g5
sg19
g5
sg20
F0.8141891891891891
sg21
I2217299
sg22
I4
sS'deferral_payments_log'
p188
g24
sg25
I7
sg26
I2217299
sg27
g5
sg28
I475
sg29
g5
sg30
g24
sS'deferred_income_log'
p189
g24
ssS'ECHOLS JOHN B'
p190
(dp191
g3
g5
sg4
g5
sg6
I21530
sg7
I00
sg8
g5
sg9
S'john.echols@enron.com'
p192
sg11
I2234774
sg12
g5
sg13
F0.06769058998842635
sg14
g5
sg15
g5
sg16
g5
sg17
I53775
sg18
g5
sg19
I200000
sg20
g24
sg21
I1008941
sg22
g5
sS'deferral_payments_log'
p193
g24
sg25
g5
sg26
I407503
sg27
I182245
sg28
I2692324
sg29
I601438
sg30
F0.07428526432925606
sS'deferred_income_log'
p194
g24
ssS'MENDELSOHN JOHN'
p195
(dp196
g3
g5
sg4
g5
sg6
I148
sg7
I00
sg8
I-103750
sg9
g5
sg11
g5
sg12
g5
sg13
g24
sg14
g5
sg15
g5
sg16
g5
sg17
g5
sg18
I103750
sg19
g5
sg20
g24
sg21
g5
sg22
g5
sS'deferral_payments_log'
p197
g24
sg25
g5
sg26
g5
sg27
g5
sg28
I148
sg29
g5
sg30
g24
sS'deferred_income_log'
p198
g24
ssS'HICKERSON GARY J'
p199
(dp200
g3
I1320
sg4
g5
sg6
I98849
sg7
I00
sg8
g5
sg9
S'gary.hickerson@enron.com'
p201
sg11
I69223
sg12
g5
sg13
F0.10173331104488624
sg14
I900
sg15
g5
sg16
I27
sg17
I1936
sg18
g5
sg19
I1700000
sg20
F0.6985894580549369
sg21
I441096
sg22
I40
sS'deferral_payments_log'
p202
g24
sg25
I1
sg26
I441096
sg27
I211788
sg28
I2081796
sg29
g5
sg30
F0.8166025873812804
sS'deferred_income_log'
p203
g24
ssS'CLINE KENNETH W'
p204
(dp205
g3
g5
sg4
g5
sg6
g5
sg7
I00
sg8
g5
sg9
g5
sg11
g5
sg12
I-472568
sg13
g24
sg14
g5
sg15
g5
sg16
g5
sg17
g5
sg18
g5
sg19
g5
sg20
g24
sg21
I189518
sg22
g5
sS'deferral_payments_log'
p206
g24
sg25
g5
sg26
I662086
sg27
g5
sg28
I0
sg29
g5
sg30
g24
sS'deferred_income_log'
p207
g24
ssS'LEWIS RICHARD'
p208
(dp209
g3
I952
sg4
g5
sg6
g5
sg7
I00
sg8
g5
sg9
S'richard.lewis@enron.com'
p210
sg11
g5
sg12
g5
sg13
g24
sg14
I739
sg15
g5
sg16
I26
sg17
g5
sg18
g5
sg19
g5
sg20
F0.7658486707566462
sg21
I850477
sg22
I10
sS'deferral_payments_log'
p211
g24
sg25
I0
sg26
g5
sg27
g5
sg28
I0
sg29
I850477
sg30
g24
sS'deferred_income_log'
p212
g24
ssS'HAYES ROBERT E'
p213
(dp214
g3
I504
sg4
I7961
sg6
g5
sg7
I00
sg8
g5
sg9
S'robert.hayes@enron.com'
p215
sg11
g5
sg12
g5
sg13
g24
sg14
I50
sg15
g5
sg16
I12
sg17
g5
sg18
g5
sg19
g5
sg20
F0.12790697674418605
sg21
I151418
sg22
I16
sS'deferral_payments_log'
p216
F8.982435503560263
sg25
I0
sg26
I151418
sg27
g5
sg28
I7961
sg29
g5
sg30
g24
sS'deferred_income_log'
p217
g24
ssS'MCCARTY DANNY J'
p218
(dp219
g3
I1433
sg4
g5
sg6
g5
sg7
I00
sg8
g5
sg9
S'danny.mccarty@enron.com'
p220
sg11
g5
sg12
g5
sg13
g24
sg14
I508
sg15
g5
sg16
I215
sg17
g5
sg18
g5
sg19
g5
sg20
F0.3246359223300971
sg21
I758931
sg22
I25
sS'deferral_payments_log'
p221
g24
sg25
I2
sg26
I94556
sg27
g5
sg28
I0
sg29
I664375
sg30
g24
sS'deferred_income_log'
p222
g24
ssS'KOPPER MICHAEL J'
p223
(dp224
g3
g5
sg4
g5
sg6
I118134
sg7
I01
sg8
g5
sg9
S'michael.kopper@enron.com'
p225
sg11
I602671
sg12
g5
sg13
F0.08456004873686766
sg14
g5
sg15
g5
sg16
g5
sg17
I907502
sg18
g5
sg19
I800000
sg20
g24
sg21
I985032
sg22
g5
sS'deferral_payments_log'
p226
g24
sg25
g5
sg26
I985032
sg27
I224305
sg28
I2652612
sg29
g5
sg30
F0.30158952760524343
sS'deferred_income_log'
p227
g24
ssS'LEFF DANIEL P'
p228
(dp229
g3
I2822
sg4
g5
sg6
g5
sg7
I00
sg8
g5
sg9
S'dan.leff@enron.com'
p230
sg11
I1387399
sg12
g5
sg13
F0.10274871369867744
sg14
I2672
sg15
g5
sg16
I63
sg17
I3083
sg18
g5
sg19
I1000000
sg20
F0.9542461005199306
sg21
I360528
sg22
I67
sS'deferral_payments_log'
p231
g24
sg25
I14
sg26
I360528
sg27
I273746
sg28
I2664228
sg29
g5
sg30
F0.3753432514034084
sS'deferred_income_log'
p232
g24
ssS'LAVORATO JOHN J'
p233
(dp234
g3
I7259
sg4
g5
sg6
I49537
sg7
I00
sg8
g5
sg9
S'john.lavorato@enron.com'
p235
sg11
I2035380
sg12
g5
sg13
F0.03254324841831629
sg14
I3962
sg15
g5
sg16
I2585
sg17
I1552
sg18
g5
sg19
I8000000
sg20
F0.4978667208451849
sg21
I5167144
sg22
I528
sS'deferral_payments_log'
p236
g24
sg25
I411
sg26
I1008149
sg27
I339288
sg28
I10425757
sg29
I4158995
sg30
F0.767330372269371
sS'deferred_income_log'
p237
g24
ssS'BERBERIAN DAVID'
p238
(dp239
g3
g5
sg4
g5
sg6
I11892
sg7
I00
sg8
g5
sg9
S'david.berberian@enron.com'
p240
sg11
g5
sg12
g5
sg13
F0.9479503138212663
sg14
g5
sg15
g5
sg16
g5
sg17
g5
sg18
g5
sg19
g5
sg20
g24
sg21
I2493616
sg22
g5
sS'deferral_payments_log'
p241
g24
sg25
g5
sg26
I869220
sg27
I216582
sg28
I228474
sg29
I1624396
sg30
g24
sS'deferred_income_log'
p242
g24
ssS'DETMERING TIMOTHY J'
p243
(dp244
g3
g5
sg4
I875307
sg6
I52255
sg7
I00
sg8
I-775241
sg9
S'timothy.detmering@enron.com'
p245
sg11
I415657
sg12
I-315068
sg13
F0.17474927007935526
sg14
g5
sg15
g5
sg16
g5
sg17
I1105
sg18
g5
sg19
I425000
sg20
g24
sg21
I2027865
sg22
g5
sS'deferral_payments_log'
p246
F13.682331103402285
sg25
g5
sg26
I315068
sg27
I210500
sg28
I1204583
sg29
I2027865
sg30
F0.3528191913716199
sS'deferred_income_log'
p247
g24
ssS'WAKEHAM JOHN'
p248
(dp249
g3
g5
sg4
g5
sg6
I103773
sg7
I00
sg8
g5
sg9
g5
sg11
g5
sg12
g5
sg13
g24
sg14
g5
sg15
g5
sg16
g5
sg17
g5
sg18
I109298
sg19
g5
sg20
g24
sg21
g5
sg22
g5
sS'deferral_payments_log'
p250
g24
sg25
g5
sg26
g5
sg27
g5
sg28
I213071
sg29
g5
sg30
g24
sS'deferred_income_log'
p251
g24
ssS'POWERS WILLIAM'
p252
(dp253
g3
I653
sg4
g5
sg6
g5
sg7
I00
sg8
I-17500
sg9
S'ken.powers@enron.com'
p254
sg11
g5
sg12
g5
sg13
g24
sg14
I12
sg15
g5
sg16
I26
sg17
g5
sg18
I17500
sg19
g5
sg20
F0.017673048600883652
sg21
g5
sg22
I0
sS'deferral_payments_log'
p255
g24
sg25
I0
sg26
g5
sg27
g5
sg28
I0
sg29
g5
sg30
g24
sS'deferred_income_log'
p256
g24
ssS'GOLD JOSEPH'
p257
(dp258
g3
g5
sg4
g5
sg6
g5
sg7
I00
sg8
g5
sg9
S'joe.gold@enron.com'
p259
sg11
I304805
sg12
g5
sg13
F0.12709987503336093
sg14
g5
sg15
g5
sg16
g5
sg17
I819288
sg18
g5
sg19
I750000
sg20
g24
sg21
I877611
sg22
g5
sS'deferral_payments_log'
p260
g24
sg25
g5
sg26
I441096
sg27
I272880
sg28
I2146973
sg29
I436515
sg30
F0.34932903208377564
sS'deferred_income_log'
p261
g24
ssS'BANNANTINE JAMES M'
p262
(dp263
g3
I566
sg4
g5
sg6
I56301
sg7
I00
sg8
I-5104
sg9
S'james.bannantine@enron.com'
p264
sg11
g5
sg12
I-560222
sg13
F0.0005206303884426602
sg14
I465
sg15
g5
sg16
I29
sg17
I864523
sg18
g5
sg19
g5
sg20
F0.8470588235294118
sg21
I5243487
sg22
I39
sS'deferral_payments_log'
p265
g24
sg25
I0
sg26
I1757552
sg27
I477
sg28
I916197
sg29
I4046157
sg30
g24
sS'deferred_income_log'
p266
g24
ssS'DUNCAN JOHN H'
p267
(dp268
g3
g5
sg4
g5
sg6
g5
sg7
I00
sg8
I-25000
sg9
g5
sg11
g5
sg12
g5
sg13
g24
sg14
g5
sg15
g5
sg16
g5
sg17
g5
sg18
I102492
sg19
g5
sg20
g24
sg21
I371750
sg22
g5
sS'deferral_payments_log'
p269
g24
sg25
g5
sg26
g5
sg27
g5
sg28
I77492
sg29
I371750
sg30
g24
sS'deferred_income_log'
p270
g24
ssS'SHAPIRO RICHARD S'
p271
(dp272
g3
I15149
sg4
g5
sg6
I137767
sg7
I00
sg8
g5
sg9
S'richard.shapiro@enron.com'
p273
sg11
g5
sg12
g5
sg13
F0.25443384130082036
sg14
I4527
sg15
g5
sg16
I1215
sg17
I705
sg18
g5
sg19
I650000
sg20
F0.28513810804204354
sg21
I987001
sg22
I74
sS'deferral_payments_log'
p274
g24
sg25
I65
sg26
I379164
sg27
I269076
sg28
I1057548
sg29
I607837
sg30
F0.6146293123338137
sS'deferred_income_log'
p275
g24
ssS'SHERRIFF JOHN R'
p276
(dp277
g3
I3187
sg4
g5
sg6
g5
sg7
I00
sg8
g5
sg9
S'john.sherriff@enron.com'
p278
sg11
I554422
sg12
g5
sg13
F0.09890233584629565
sg14
I2103
sg15
g5
sg16
I92
sg17
I1852186
sg18
g5
sg19
I1500000
sg20
F0.656907593778591
sg21
I3128982
sg22
I28
sS'deferral_payments_log'
p279
g24
sg25
I23
sg26
I1293424
sg27
I428780
sg28
I4335388
sg29
I1835558
sg30
F0.34598979376240374
sS'deferred_income_log'
p280
g24
ssS'SHELBY REX'
p281
(dp282
g3
I225
sg4
g5
sg6
I22884
sg7
I01
sg8
I-4167
sg9
S'rex.shelby@enron.com'
p283
sg11
g5
sg12
g5
sg13
F0.10571664541627888
sg14
I91
sg15
g5
sg16
I39
sg17
I1573324
sg18
g5
sg19
I200000
sg20
F0.44696969696969696
sg21
I2493616
sg22
I13
sS'deferral_payments_log'
p284
g24
sg25
I14
sg26
I869220
sg27
I211844
sg28
I2003885
sg29
I1624396
sg30
F0.09980612659908128
sS'deferred_income_log'
p285
g24
ssS'LEMAISTRE CHARLES'
p286
(dp287
g3
g5
sg4
g5
sg6
g5
sg7
I00
sg8
I-25000
sg9
g5
sg11
g5
sg12
g5
sg13
g24
sg14
g5
sg15
g5
sg16
g5
sg17
g5
sg18
I112492
sg19
g5
sg20
g24
sg21
I412878
sg22
g5
sS'deferral_payments_log'
p288
g24
sg25
g5
sg26
g5
sg27
g5
sg28
I87492
sg29
I412878
sg30
g24
sS'deferred_income_log'
p289
g24
ssS'DEFFNER JOSEPH M'
p290
(dp291
g3
I714
sg4
g5
sg6
I41626
sg7
I00
sg8
g5
sg9
S'joseph.deffner@enron.com'
p292
sg11
I335349
sg12
g5
sg13
F0.17053834487928257
sg14
I552
sg15
g5
sg16
I74
sg17
I25553
sg18
g5
sg19
I600000
sg20
F0.8515228426395939
sg21
I159211
sg22
I115
sS'deferral_payments_log'
p293
g24
sg25
I4
sg26
I141833
sg27
I206121
sg28
I1208649
sg29
I17378
sg30
F0.49642203815996205
sS'deferred_income_log'
p294
g24
ssS'KISHKILL JOSEPH G'
p295
(dp296
g3
g5
sg4
g5
sg6
I116335
sg7
I00
sg8
I-51042
sg9
S'joe.kishkill@enron.com'
p297
sg11
g5
sg12
g5
sg13
F0.2471939122934447
sg14
g5
sg15
g5
sg16
g5
sg17
I465357
sg18
g5
sg19
g5
sg20
g24
sg21
I1034346
sg22
g5
sS'deferral_payments_log'
p298
g24
sg25
g5
sg26
I1034346
sg27
I174246
sg28
I704896
sg29
g5
sg30
g24
sS'deferred_income_log'
p299
g24
ssS'WHALLEY LAWRENCE G'
p300
(dp301
g3
I6019
sg4
g5
sg6
I57838
sg7
I00
sg8
g5
sg9
S'greg.whalley@enron.com'
p302
sg11
I808346
sg12
g5
sg13
F0.10910869608904103
sg14
I3920
sg15
g5
sg16
I556
sg17
I301026
sg18
g5
sg19
I3000000
sg20
F0.6281368821292775
sg21
I6079137
sg22
I186
sS'deferral_payments_log'
p303
g24
sg25
I24
sg26
I2796177
sg27
I510364
sg28
I4677574
sg29
I3282960
sg30
F0.6413581057189047
sS'deferred_income_log'
p304
g24
ssS'MCCONNELL MICHAEL S'
p305
(dp306
g3
I3329
sg4
g5
sg6
I81364
sg7
I00
sg8
g5
sg9
S'mike.mcconnell@enron.com'
p307
sg11
I554422
sg12
g5
sg13
F0.17371478715729402
sg14
I2189
sg15
g5
sg16
I2742
sg17
I540
sg18
g5
sg19
I1100000
sg20
F0.4076758359413606
sg21
I3101279
sg22
I92
sS'deferral_payments_log'
p308
g24
sg25
I194
sg26
I1478269
sg27
I365038
sg28
I2101364
sg29
I1623010
sg30
F0.5234695178940917
sS'deferred_income_log'
p309
g24
ssS'PIRO JIM'
p310
(dp311
g3
I58
sg4
g5
sg6
g5
sg7
I00
sg8
g5
sg9
S'jim.piro@enron.com'
p312
sg11
g5
sg12
g5
sg13
g24
sg14
I3
sg15
g5
sg16
I16
sg17
g5
sg18
g5
sg19
g5
sg20
F0.05405405405405406
sg21
I47304
sg22
I0
sS'deferral_payments_log'
p313
g24
sg25
I1
sg26
I47304
sg27
g5
sg28
I0
sg29
g5
sg30
g24
sS'deferred_income_log'
p314
g24
ssS'DELAINEY DAVID W'
p315
(dp316
g3
I3093
sg4
g5
sg6
I86174
sg7
I01
sg8
g5
sg9
S'david.delainey@enron.com'
p317
sg11
I1294981
sg12
g5
sg13
F0.07690914386942319
sg14
I2097
sg15
g5
sg16
I3069
sg17
I1661
sg18
g5
sg19
I3000000
sg20
F0.4498539435248296
sg21
I3614261
sg22
I66
sS'deferral_payments_log'
p318
g24
sg25
I609
sg26
I1323148
sg27
I365163
sg28
I4747979
sg29
I2291113
sg30
F0.6318477819720769
sS'deferred_income_log'
p319
g24
ssS'SULLIVAN-SHAKLOVITZ COLLEEN'
p320
(dp321
g3
g5
sg4
I181993
sg6
g5
sg7
I00
sg8
g5
sg9
g5
sg11
I554422
sg12
g5
sg13
F0.162883897229816
sg14
g5
sg15
g5
sg16
g5
sg17
I162
sg18
g5
sg19
I100000
sg20
g24
sg21
I1362375
sg22
g5
sS'deferral_payments_log'
p322
F12.11172899848254
sg25
g5
sg26
g5
sg27
I162779
sg28
I999356
sg29
I1362375
sg30
F0.10006444150032621
sS'deferred_income_log'
p323
g24
ssS'WROBEL BRUCE'
p324
(dp325
g3
g5
sg4
g5
sg6
g5
sg7
I00
sg8
g5
sg9
g5
sg11
g5
sg12
g5
sg13
g24
sg14
g5
sg15
g5
sg16
g5
sg17
g5
sg18
g5
sg19
g5
sg20
g24
sg21
I139130
sg22
g5
sS'deferral_payments_log'
p326
g24
sg25
g5
sg26
g5
sg27
g5
sg28
I0
sg29
I139130
sg30
g24
sS'deferred_income_log'
p327
g24
ssS'LINDHOLM TOD A'
p328
(dp329
g3
g5
sg4
I204075
sg6
I57727
sg7
I00
sg8
g5
sg9
S'tod.lindholm@enron.com'
p330
sg11
I175000
sg12
g5
sg13
F0.2699622897421934
sg14
g5
sg15
g5
sg16
g5
sg17
I2630
sg18
g5
sg19
I200000
sg20
g24
sg21
I3064208
sg22
g5
sS'deferral_payments_log'
p331
F12.226247752466806
sg25
g5
sg26
I514847
sg27
I236457
sg28
I875889
sg29
I2549361
sg30
F0.22833943570475254
sS'deferred_income_log'
p332
g24
ssS'MEYER JEROME J'
p333
(dp334
g3
g5
sg4
g5
sg6
I2151
sg7
I00
sg8
I-38346
sg9
g5
sg11
g5
sg12
g5
sg13
g24
sg14
g5
sg15
g5
sg16
g5
sg17
g5
sg18
I38346
sg19
g5
sg20
g24
sg21
g5
sg22
g5
sS'deferral_payments_log'
p335
g24
sg25
g5
sg26
g5
sg27
g5
sg28
I2151
sg29
g5
sg30
g24
sS'deferred_income_log'
p336
g24
ssS'LAY KENNETH L'
p337
(dp338
g3
I4273
sg4
I202911
sg6
I99832
sg7
I01
sg8
I-300000
sg9
S'kenneth.lay@enron.com'
p339
sg11
I3600000
sg12
g5
sg13
F0.010354607410233042
sg14
I2411
sg15
I81525000
sg16
I36
sg17
I10359729
sg18
g5
sg19
I7000000
sg20
F0.5917846368066837
sg21
I49110078
sg22
I123
sS'deferral_payments_log'
p340
F12.220527666499757
sg25
I16
sg26
I14761694
sg27
I1072321
sg28
I103559793
sg29
I34348384
sg30
F0.06759380061719514
sS'deferred_income_log'
p341
g24
ssS'BUTTS ROBERT H'
p342
(dp343
g3
g5
sg4
g5
sg6
I9410
sg7
I00
sg8
I-75000
sg9
S'bob.butts@enron.com'
p344
sg11
I175000
sg12
g5
sg13
F0.20566192349372672
sg14
g5
sg15
g5
sg16
g5
sg17
I150656
sg18
g5
sg19
I750000
sg20
g24
sg21
I417619
sg22
g5
sS'deferral_payments_log'
p345
g24
sg25
g5
sg26
I417619
sg27
I261516
sg28
I1271582
sg29
g5
sg30
F0.5898164648445794
sS'deferred_income_log'
p346
g24
ssS'OLSON CINDY K'
p347
(dp348
g3
I1184
sg4
I77716
sg6
I63791
sg7
I00
sg8
g5
sg9
S'cindy.olson@enron.com'
p349
sg11
I100000
sg12
g5
sg13
F0.2490077991339004
sg14
I856
sg15
g5
sg16
I52
sg17
I972
sg18
g5
sg19
I750000
sg20
F0.720873786407767
sg21
I2606763
sg22
I20
sS'deferral_payments_log'
p350
F11.26082930264344
sg25
I15
sg26
I969729
sg27
I329078
sg28
I1321557
sg29
I1637034
sg30
F0.5675124114964394
sS'deferred_income_log'
p351
g24
ssS'MCDONALD REBECCA'
p352
(dp353
g3
I894
sg4
g5
sg6
g5
sg7
I00
sg8
g5
sg9
S'rebecca.mcdonald@enron.com'
p354
sg11
g5
sg12
g5
sg13
g24
sg14
I720
sg15
g5
sg16
I13
sg17
g5
sg18
g5
sg19
g5
sg20
F0.8544652701212789
sg21
I1691366
sg22
I54
sS'deferral_payments_log'
p355
g24
sg25
I1
sg26
I934065
sg27
g5
sg28
I0
sg29
I757301
sg30
g24
sS'deferred_income_log'
p356
g24
ssS'CUMBERLAND MICHAEL S'
p357
(dp358
g3
g5
sg4
g5
sg6
I22344
sg7
I00
sg8
g5
sg9
g5
sg11
I275000
sg12
g5
sg13
F0.2288478580516761
sg14
g5
sg15
g5
sg16
g5
sg17
I713
sg18
g5
sg19
I325000
sg20
g24
sg21
I207940
sg22
g5
sS'deferral_payments_log'
p359
g24
sg25
g5
sg26
I207940
sg27
I184899
sg28
I807956
sg29
g5
sg30
F0.4022496274549604
sS'deferred_income_log'
p360
g24
ssS'GAHN ROBERT S'
p361
(dp362
g3
g5
sg4
I73122
sg6
I50080
sg7
I00
sg8
I-1042
sg9
g5
sg11
g5
sg12
g5
sg13
F0.21320363985631563
sg14
g5
sg15
g5
sg16
g5
sg17
I76547
sg18
g5
sg19
I509870
sg20
g24
sg21
I318607
sg22
g5
sS'deferral_payments_log'
p363
F11.199898233732778
sg25
g5
sg26
I235370
sg27
I192008
sg28
I900585
sg29
I83237
sg30
F0.5661542219779365
sS'deferred_income_log'
p364
g24
ssS'MCCLELLAN GEORGE'
p365
(dp366
g3
I1744
sg4
g5
sg6
I228763
sg7
I00
sg8
I-125000
sg9
S'george.mcclellan@enron.com'
p367
sg11
g5
sg12
g5
sg13
F0.1997424859508494
sg14
I1469
sg15
g5
sg16
I49
sg17
I51587
sg18
g5
sg19
I900000
sg20
F0.8482989403234802
sg21
I947861
sg22
I52
sS'deferral_payments_log'
p368
g24
sg25
I0
sg26
I441096
sg27
I263413
sg28
I1318763
sg29
I506765
sg30
F0.6824577274309334
sS'deferred_income_log'
p369
g24
ssS'HERMANN ROBERT J'
p370
(dp371
g3
g5
sg4
g5
sg6
I48357
sg7
I00
sg8
I-280000
sg9
S'robert.hermann@enron.com'
p372
sg11
I150000
sg12
g5
sg13
F0.20244384995001777
sg14
g5
sg15
g5
sg16
g5
sg17
I416441
sg18
g5
sg19
I700000
sg20
g24
sg21
I668132
sg22
g5
sS'deferral_payments_log'
p373
g24
sg25
g5
sg26
I480632
sg27
I262663
sg28
I1297461
sg29
I187500
sg30
F0.5395152532523135
sS'deferred_income_log'
p374
g24
ssS'SCRIMSHAW MATTHEW'
p375
(dp376
g3
g5
sg4
g5
sg6
g5
sg7
I00
sg8
g5
sg9
S'matthew.scrimshaw@enron.com'
p377
sg11
g5
sg12
g5
sg13
g24
sg14
g5
sg15
g5
sg16
g5
sg17
g5
sg18
g5
sg19
g5
sg20
g24
sg21
I759557
sg22
g5
sS'deferral_payments_log'
p378
g24
sg25
g5
sg26
g5
sg27
g5
sg28
I0
sg29
I759557
sg30
g24
sS'deferred_income_log'
p379
g24
ssS'GATHMANN WILLIAM D'
p380
(dp381
g3
g5
sg4
g5
sg6
g5
sg7
I00
sg8
g5
sg9
g5
sg11
g5
sg12
I-72419
sg13
g24
sg14
g5
sg15
g5
sg16
g5
sg17
g5
sg18
g5
sg19
g5
sg20
g24
sg21
I1945360
sg22
g5
sS'deferral_payments_log'
p382
g24
sg25
g5
sg26
I264013
sg27
g5
sg28
I0
sg29
I1753766
sg30
g24
sS'deferred_income_log'
p383
g24
ssS'HAEDICKE MARK E'
p384
(dp385
g3
I4009
sg4
I2157527
sg6
I76169
sg7
I00
sg8
I-934484
sg9
S'mark.haedicke@enron.com'
p386
sg11
I983346
sg12
I-329825
sg13
F0.09694705841959127
sg14
I1847
sg15
g5
sg16
I1941
sg17
I52382
sg18
g5
sg19
I1150000
sg20
F0.35092436974789915
sg21
I803094
sg22
I180
sS'deferral_payments_log'
p387
F14.584473679839284
sg25
I61
sg26
I524169
sg27
I374125
sg28
I3859065
sg29
I608750
sg30
F0.29799964499172726
sS'deferred_income_log'
p388
g24
ssS'BOWEN JR RAYMOND M'
p389
(dp390
g3
I1858
sg4
g5
sg6
I65907
sg7
I01
sg8
I-833
sg9
S'raymond.bowen@enron.com'
p391
sg11
I974293
sg12
g5
sg13
F0.10436100837994162
sg14
I1593
sg15
g5
sg16
I27
sg17
I1621
sg18
g5
sg19
I1350000
sg20
F0.9273209549071618
sg21
I252055
sg22
I140
sS'deferral_payments_log'
p392
g24
sg25
I15
sg26
I252055
sg27
I278601
sg28
I2669589
sg29
g5
sg30
F0.5056958205926081
sS'deferred_income_log'
p393
g24
ssS'GILLIS JOHN'
p394
(dp395
g3
g5
sg4
g5
sg6
g5
sg7
I00
sg8
g5
sg9
g5
sg11
g5
sg12
g5
sg13
g24
sg14
g5
sg15
g5
sg16
g5
sg17
g5
sg18
g5
sg19
g5
sg20
g24
sg21
I85641
sg22
g5
sS'deferral_payments_log'
p396
g24
sg25
g5
sg26
I75838
sg27
g5
sg28
I0
sg29
I9803
sg30
g24
sS'deferred_income_log'
p397
g24
ssS'FITZGERALD JAY L'
p398
(dp399
g3
I936
sg4
g5
sg6
I23870
sg7
I00
sg8
g5
sg9
S'jay.fitzgerald@enron.com'
p400
sg11
I556416
sg12
g5
sg13
F0.14076122180545456
sg14
I723
sg15
g5
sg16
I16
sg17
I285414
sg18
g5
sg19
I350000
sg20
F0.7689075630252101
sg21
I1621236
sg22
I1
sS'deferral_payments_log'
p401
g24
sg25
I8
sg26
I956775
sg27
I199157
sg28
I1414857
sg29
I664461
sg30
F0.24737482303865338
sS'deferred_income_log'
p402
g24
ssS'MORAN MICHAEL P'
p403
(dp404
g3
I672
sg4
g5
sg6
g5
sg7
I00
sg8
g5
sg9
S'michael.moran@enron.com'
p405
sg11
g5
sg12
g5
sg13
g24
sg14
I127
sg15
g5
sg16
I19
sg17
g5
sg18
g5
sg19
g5
sg20
F0.1837916063675832
sg21
I221141
sg22
I0
sS'deferral_payments_log'
p406
g24
sg25
I0
sg26
I161602
sg27
g5
sg28
I0
sg29
I59539
sg30
g24
sS'deferred_income_log'
p407
g24
ssS'REDMOND BRIAN L'
p408
(dp409
g3
I1671
sg4
g5
sg6
I14689
sg7
I00
sg8
g5
sg9
S'brian.redmond@enron.com'
p410
sg11
g5
sg12
g5
sg13
F0.8682943449685732
sg14
I1063
sg15
g5
sg16
I221
sg17
g5
sg18
g5
sg19
g5
sg20
F0.6955602536997886
sg21
I7890324
sg22
I204
sS'deferral_payments_log'
p411
g24
sg25
I49
sg26
I381285
sg27
I96840
sg28
I111529
sg29
I7509039
sg30
g24
sS'deferred_income_log'
p412
g24
ssS'BAZELIDES PHILIP J'
p413
(dp414
g3
g5
sg4
I684694
sg6
g5
sg7
I00
sg8
g5
sg9
g5
sg11
I93750
sg12
g5
sg13
F0.0939595598835533
sg14
g5
sg15
g5
sg16
g5
sg17
I874
sg18
g5
sg19
g5
sg20
g24
sg21
I1599641
sg22
g5
sS'deferral_payments_log'
p415
F13.436728762614257
sg25
g5
sg26
g5
sg27
I80818
sg28
I860136
sg29
I1599641
sg30
g24
sS'deferred_income_log'
p416
g24
ssS'BELDEN TIMOTHY N'
p417
(dp418
g3
I7991
sg4
I2144013
sg6
I17355
sg7
I01
sg8
I-2334434
sg9
S'tim.belden@enron.com'
p419
sg11
g5
sg12
g5
sg13
F0.03889738132153562
sg14
I5521
sg15
g5
sg16
I484
sg17
I210698
sg18
g5
sg19
I5249999
sg20
F0.6910914454277286
sg21
I1110705
sg22
I228
sS'deferral_payments_log'
p420
F14.578190331002256
sg25
I108
sg26
I157569
sg27
I213999
sg28
I5501630
sg29
I953136
sg30
F0.9542624640333864
sS'deferred_income_log'
p421
g24
ssS'DURAN WILLIAM D'
p422
(dp423
g3
I904
sg4
g5
sg6
I25785
sg7
I00
sg8
g5
sg9
S'w.duran@enron.com'
p424
sg11
I1105218
sg12
g5
sg13
F0.10065242637929396
sg14
I599
sg15
g5
sg16
I12
sg17
I1568
sg18
g5
sg19
I750000
sg20
F0.7729257641921398
sg21
I1640910
sg22
I106
sS'deferral_payments_log'
p425
g24
sg25
I3
sg26
I189041
sg27
I210692
sg28
I2093263
sg29
I1451869
sg30
F0.3582922929416896
sS'deferred_income_log'
p426
g24
ssS'THORN TERENCE H'
p427
(dp428
g3
I266
sg4
I16586
sg6
I46145
sg7
I00
sg8
g5
sg9
S'terence.thorn@enron.com'
p429
sg11
I200000
sg12
g5
sg13
F0.24366917438419755
sg14
I73
sg15
g5
sg16
I41
sg17
I426629
sg18
g5
sg19
g5
sg20
F0.23778501628664495
sg21
I4817796
sg22
I0
sS'deferral_payments_log'
p430
F9.716374535006043
sg25
I0
sg26
I365320
sg27
I222093
sg28
I911453
sg29
I4452476
sg30
g24
sS'deferred_income_log'
p431
g24
ssS'FASTOW ANDREW S'
p432
(dp433
g3
g5
sg4
g5
sg6
I55921
sg7
I01
sg8
I-1386055
sg9
S'andrew.fastow@enron.com'
p434
sg11
I1736055
sg12
g5
sg13
F0.1817998806146489
sg14
g5
sg15
g5
sg16
g5
sg17
I277464
sg18
g5
sg19
I1300000
sg20
g24
sg21
I1794412
sg22
g5
sS'deferral_payments_log'
p435
g24
sg25
g5
sg26
I1794412
sg27
I440698
sg28
I2424083
sg29
g5
sg30
F0.5362852674599013
sS'deferred_income_log'
p436
g24
ssS'FOY JOE'
p437
(dp438
g3
I57
sg4
I181755
sg6
g5
sg7
I00
sg8
g5
sg9
S'tracy.foy@enron.com'
p439
sg11
g5
sg12
g5
sg13
g24
sg14
I2
sg15
g5
sg16
I13
sg17
g5
sg18
g5
sg19
g5
sg20
F0.02857142857142857
sg21
I343434
sg22
I0
sS'deferral_payments_log'
p440
F12.110420407230512
sg25
I0
sg26
g5
sg27
g5
sg28
I181755
sg29
I343434
sg30
g24
sS'deferred_income_log'
p441
g24
ssS'CALGER CHRISTOPHER F'
p442
(dp443
g3
I2598
sg4
g5
sg6
I35818
sg7
I01
sg8
I-262500
sg9
S'christopher.calger@enron.com'
p444
sg11
I375304
sg12
g5
sg13
F0.14651951415759315
sg14
I2188
sg15
g5
sg16
I144
sg17
I486
sg18
g5
sg19
I1250000
sg20
F0.8796498905908097
sg21
I126027
sg22
I199
sS'deferral_payments_log'
p445
g24
sg25
I25
sg26
I126027
sg27
I240189
sg28
I1639297
sg29
g5
sg30
F0.7625219835087845
sS'deferred_income_log'
p446
g24
ssS'RICE KENNETH D'
p447
(dp448
g3
I905
sg4
g5
sg6
I46950
sg7
I01
sg8
I-3504386
sg9
S'ken.rice@enron.com'
p449
sg11
I1617011
sg12
g5
sg13
F0.8328601128601129
sg14
I864
sg15
g5
sg16
I18
sg17
I174839
sg18
g5
sg19
I1750000
sg20
F0.9859154929577465
sg21
I22542539
sg22
I42
sS'deferral_payments_log'
p450
g24
sg25
I4
sg26
I2748364
sg27
I420636
sg28
I505050
sg29
I19794175
sg30
F3.465003465003465
sS'deferred_income_log'
p451
g24
ssS'KAMINSKI WINCENTY J'
p452
(dp453
g3
I4607
sg4
g5
sg6
I83585
sg7
I00
sg8
g5
sg9
S'vince.kaminski@enron.com'
p454
sg11
I323466
sg12
g5
sg13
F0.2531244795601116
sg14
I583
sg15
g5
sg16
I14368
sg17
I4669
sg18
g5
sg19
I400000
sg20
F0.04189723320158103
sg21
I976037
sg22
I41
sS'deferral_payments_log'
p455
g24
sg25
I171
sg26
I126027
sg27
I275101
sg28
I1086821
sg29
I850010
sg30
F0.368045887961311
sS'deferred_income_log'
p456
g24
ssS'LOCKHART EUGENE E'
p457
(dp458
g3
g5
sg4
g5
sg6
g5
sg7
I00
sg8
g5
sg9
g5
sg11
g5
sg12
g5
sg13
g24
sg14
g5
sg15
g5
sg16
g5
sg17
g5
sg18
g5
sg19
g5
sg20
g24
sg21
g5
sg22
g5
sS'deferral_payments_log'
p459
g24
sg25
g5
sg26
g5
sg27
g5
sg28
I0
sg29
g5
sg30
g24
sS'deferred_income_log'
p460
g24
ssS'COX DAVID'
p461
(dp462
g3
I102
sg4
g5
sg6
I27861
sg7
I00
sg8
I-41250
sg9
S'chip.cox@enron.com'
p463
sg11
g5
sg12
g5
sg13
F0.28535500044035145
sg14
I71
sg15
g5
sg16
I33
sg17
I494
sg18
g5
sg19
I800000
sg20
F0.5555555555555556
sg21
I495633
sg22
I0
sS'deferral_payments_log'
p464
g24
sg25
I4
sg26
I378082
sg27
I314288
sg28
I1101393
sg29
I117551
sg30
F0.7263529003725282
sS'deferred_income_log'
p465
g24
ssS'OVERDYKE JR JERE C'
p466
(dp467
g3
g5
sg4
g5
sg6
I18834
sg7
I00
sg8
g5
sg9
S'jere.overdyke@enron.com'
p468
sg11
I135836
sg12
g5
sg13
F0.38008783483527964
sg14
g5
sg15
g5
sg16
g5
sg17
I176
sg18
g5
sg19
g5
sg20
g24
sg21
I7307594
sg22
g5
sS'deferral_payments_log'
p469
g24
sg25
g5
sg26
I2041016
sg27
I94941
sg28
I249787
sg29
I5266578
sg30
g24
sS'deferred_income_log'
p470
g24
ssS'PEREIRA PAULO V. FERRAZ'
p471
(dp472
g3
g5
sg4
g5
sg6
I27942
sg7
I00
sg8
I-101250
sg9
g5
sg11
g5
sg12
g5
sg13
g24
sg14
g5
sg15
g5
sg16
g5
sg17
g5
sg18
I101250
sg19
g5
sg20
g24
sg21
g5
sg22
g5
sS'deferral_payments_log'
p473
g24
sg25
g5
sg26
g5
sg27
g5
sg28
I27942
sg29
g5
sg30
g24
sS'deferred_income_log'
p474
g24
ssS'STABLER FRANK'
p475
(dp476
g3
g5
sg4
g5
sg6
I16514
sg7
I00
sg8
g5
sg9
S'frank.stabler@enron.com'
p477
sg11
g5
sg12
g5
sg13
F0.21536264698715119
sg14
g5
sg15
g5
sg16
g5
sg17
I356071
sg18
g5
sg19
I500000
sg20
g24
sg21
I511734
sg22
g5
sS'deferral_payments_log'
p478
g24
sg25
g5
sg26
I511734
sg27
I239502
sg28
I1112087
sg29
g5
sg30
F0.44960511183027946
sS'deferred_income_log'
p479
g24
ssS'SKILLING JEFFREY K'
p480
(dp481
g3
I3627
sg4
g5
sg6
I29336
sg7
I01
sg8
g5
sg9
S'jeff.skilling@enron.com'
p482
sg11
I1920000
sg12
g5
sg13
F0.12798506826665756
sg14
I2042
sg15
g5
sg16
I108
sg17
I22122
sg18
g5
sg19
I5600000
sg20
F0.5783132530120482
sg21
I26093672
sg22
I88
sS'deferral_payments_log'
p483
g24
sg25
I30
sg26
I6843672
sg27
I1111258
sg28
I8682716
sg29
I19250000
sg30
F0.6449594804206426
sS'deferred_income_log'
p484
g24
ssS'BLAKE JR. NORMAN P'
p485
(dp486
g3
g5
sg4
g5
sg6
I1279
sg7
I00
sg8
I-113784
sg9
g5
sg11
g5
sg12
g5
sg13
g24
sg14
g5
sg15
g5
sg16
g5
sg17
g5
sg18
I113784
sg19
g5
sg20
g24
sg21
g5
sg22
g5
sS'deferral_payments_log'
p487
g24
sg25
g5
sg26
g5
sg27
g5
sg28
I1279
sg29
g5
sg30
g24
sS'deferred_income_log'
p488
g24
ssS'SHERRICK JEFFREY B'
p489
(dp490
g3
I613
sg4
g5
sg6
g5
sg7
I00
sg8
g5
sg9
S'jeffrey.sherrick@enron.com'
p491
sg11
g5
sg12
g5
sg13
g24
sg14
I583
sg15
g5
sg16
I25
sg17
g5
sg18
g5
sg19
g5
sg20
F1.0031347962382444
sg21
I1832468
sg22
I39
sS'deferral_payments_log'
p492
g24
sg25
I18
sg26
I405999
sg27
g5
sg28
I0
sg29
I1426469
sg30
g24
sS'deferred_income_log'
p493
g24
ssS'PRENTICE JAMES'
p494
(dp495
g3
g5
sg4
I564348
sg6
g5
sg7
I00
sg8
g5
sg9
S'james.prentice@enron.com'
p496
sg11
g5
sg12
g5
sg13
g24
sg14
g5
sg15
g5
sg16
g5
sg17
g5
sg18
g5
sg19
g5
sg20
g24
sg21
I1095040
sg22
g5
sS'deferral_payments_log'
p497
F13.243428133432172
sg25
g5
sg26
I208809
sg27
g5
sg28
I564348
sg29
I886231
sg30
g24
sS'deferred_income_log'
p498
g24
ssS'GRAY RODNEY'
p499
(dp500
g3
g5
sg4
I93585
sg6
g5
sg7
I00
sg8
g5
sg9
g5
sg11
I365625
sg12
g5
sg13
F0.005768938951282772
sg14
g5
sg15
g5
sg16
g5
sg17
I680833
sg18
g5
sg19
g5
sg20
g24
sg21
g5
sg22
g5
sS'deferral_payments_log'
p501
F11.446636078629007
sg25
g5
sg26
g5
sg27
I6615
sg28
I1146658
sg29
g5
sg30
g24
sS'deferred_income_log'
p502
g24
ssS'PICKERING MARK R'
p503
(dp504
g3
I898
sg4
g5
sg6
I31653
sg7
I00
sg8
g5
sg9
S'mark.pickering@enron.com'
p505
sg11
g5
sg12
g5
sg13
F0.47237450331364617
sg14
I728
sg15
I400000
sg16
I67
sg17
g5
sg18
g5
sg19
I300000
sg20
F0.7616580310880829
sg21
I28798
sg22
I7
sS'deferral_payments_log'
p506
g24
sg25
I0
sg26
g5
sg27
I655037
sg28
I1386690
sg29
I28798
sg30
F0.21634251346732147
sS'deferred_income_log'
p507
g24
ssS'NOLES JAMES L'
p508
(dp509
g3
g5
sg4
I774401
sg6
g5
sg7
I00
sg8
g5
sg9
g5
sg11
g5
sg12
I-94556
sg13
g24
sg14
g5
sg15
g5
sg16
g5
sg17
g5
sg18
g5
sg19
g5
sg20
g24
sg21
I368705
sg22
g5
sS'deferral_payments_log'
p510
F13.559846397585797
sg25
g5
sg26
I463261
sg27
g5
sg28
I774401
sg29
g5
sg30
g24
sS'deferred_income_log'
p511
g24
ssS'KEAN STEVEN J'
p512
(dp513
g3
I12754
sg4
g5
sg6
I41953
sg7
I00
sg8
g5
sg9
S'steven.kean@enron.com'
p514
sg11
I300000
sg12
g5
sg13
F0.23137791684453757
sg14
I3639
sg15
g5
sg16
I6759
sg17
I1231
sg18
g5
sg19
I1000000
sg20
F0.21349869317890638
sg21
I6153642
sg22
I140
sS'deferral_payments_log'
p515
g24
sg25
I387
sg26
I4131594
sg27
I404338
sg28
I1747522
sg29
I2022048
sg30
F0.5722388616566773
sS'deferred_income_log'
p516
g24
ssS'FOWLER PEGGY'
p517
(dp518
g3
I517
sg4
g5
sg6
g5
sg7
I00
sg8
g5
sg9
S'kulvinder.fowler@enron.com'
p519
sg11
g5
sg12
g5
sg13
g24
sg14
I10
sg15
g5
sg16
I36
sg17
g5
sg18
g5
sg19
g5
sg20
F0.018083182640144666
sg21
I1884748
sg22
I0
sS'deferral_payments_log'
p520
g24
sg25
I0
sg26
I560170
sg27
g5
sg28
I0
sg29
I1324578
sg30
g24
sS'deferred_income_log'
p521
g24
ssS'WASAFF GEORGE'
p522
(dp523
g3
I400
sg4
I831299
sg6
g5
sg7
I00
sg8
I-583325
sg9
S'george.wasaff@enron.com'
p524
sg11
I200000
sg12
g5
sg13
F0.2513507895919837
sg14
I337
sg15
g5
sg16
I30
sg17
I1425
sg18
g5
sg19
I325000
sg20
F0.8511627906976744
sg21
I2056427
sg22
I22
sS'deferral_payments_log'
p525
F13.63074601951918
sg25
I7
sg26
I388167
sg27
I259996
sg28
I1034395
sg29
I1668260
sg30
F0.3141933207333755
sS'deferred_income_log'
p526
g24
ssS'WHITE JR THOMAS E'
p527
(dp528
g3
g5
sg4
g5
sg6
I81353
sg7
I00
sg8
g5
sg9
S'thomas.white@enron.com'
p529
sg11
g5
sg12
g5
sg13
F0.1641592899766796
sg14
g5
sg15
g5
sg16
g5
sg17
I1085463
sg18
g5
sg19
I450000
sg20
g24
sg21
I15144123
sg22
g5
sS'deferral_payments_log'
p530
g24
sg25
g5
sg26
I13847074
sg27
I317543
sg28
I1934359
sg29
I1297049
sg30
F0.23263520370313887
sS'deferred_income_log'
p531
g24
ssS'CHRISTODOULOU DIOMEDES'
p532
(dp533
g3
g5
sg4
g5
sg6
g5
sg7
I00
sg8
g5
sg9
S'diomedes.christodoulou@enron.com'
p534
sg11
g5
sg12
g5
sg13
g24
sg14
g5
sg15
g5
sg16
g5
sg17
g5
sg18
g5
sg19
g5
sg20
g24
sg21
I6077885
sg22
g5
sS'deferral_payments_log'
p535
g24
sg25
g5
sg26
I950730
sg27
g5
sg28
I0
sg29
I5127155
sg30
g24
sS'deferred_income_log'
p536
g24
ssS'ALLEN PHILLIP K'
p537
(dp538
g3
I2902
sg4
I2869717
sg6
I13868
sg7
I00
sg8
I-3081055
sg9
S'phillip.allen@enron.com'
p539
sg11
I304805
sg12
I-126027
sg13
F0.04503458847276874
sg14
I1407
sg15
g5
sg16
I2195
sg17
I152
sg18
g5
sg19
I4175000
sg20
F0.2980184422209143
sg21
I1729541
sg22
I47
sS'deferral_payments_log'
p540
F14.869724325068464
sg25
I65
sg26
I126027
sg27
I201955
sg28
I4484442
sg29
I1729541
sg30
F0.9309965431596617
sS'deferred_income_log'
p541
g24
ssS'SHARP VICTORIA T'
p542
(dp543
g3
I3136
sg4
I187469
sg6
I116337
sg7
I00
sg8
g5
sg9
S'vicki.sharp@enron.com'
p544
sg11
I422158
sg12
g5
sg13
F0.15740200988131386
sg14
I2477
sg15
g5
sg16
I136
sg17
I2401
sg18
g5
sg19
I600000
sg20
F0.76619804400978
sg21
I494136
sg22
I24
sS'deferral_payments_log'
p545
F12.141374111591237
sg25
I6
sg26
I213063
sg27
I248146
sg28
I1576511
sg29
I281073
sg30
F0.38058725882661143
sS'deferred_income_log'
p546
g24
ssS'JAEDICKE ROBERT'
p547
(dp548
g3
g5
sg4
g5
sg6
g5
sg7
I00
sg8
I-25000
sg9
g5
sg11
g5
sg12
I-44093
sg13
g24
sg14
g5
sg15
g5
sg16
g5
sg17
g5
sg18
I108750
sg19
g5
sg20
g24
sg21
I431750
sg22
g5
sS'deferral_payments_log'
p549
g24
sg25
g5
sg26
I44093
sg27
g5
sg28
I83750
sg29
I431750
sg30
g24
sS'deferred_income_log'
p550
g24
ssS'WINOKUR JR. HERBERT S'
p551
(dp552
g3
g5
sg4
g5
sg6
I1413
sg7
I00
sg8
I-25000
sg9
g5
sg11
g5
sg12
g5
sg13
g24
sg14
g5
sg15
g5
sg16
g5
sg17
g5
sg18
I108579
sg19
g5
sg20
g24
sg21
g5
sg22
g5
sS'deferral_payments_log'
p553
g24
sg25
g5
sg26
g5
sg27
g5
sg28
I84992
sg29
g5
sg30
g24
sS'deferred_income_log'
p554
g24
ssS'BROWN MICHAEL'
p555
(dp556
g3
I1486
sg4
g5
sg6
I49288
sg7
I00
sg8
g5
sg9
S'michael.brown@enron.com'
p557
sg11
g5
sg12
g5
sg13
g24
sg14
I761
sg15
g5
sg16
I41
sg17
g5
sg18
g5
sg19
g5
sg20
F0.5075311067452521
sg21
g5
sg22
I13
sS'deferral_payments_log'
p558
g24
sg25
I1
sg26
g5
sg27
g5
sg28
I49288
sg29
g5
sg30
g24
sS'deferred_income_log'
p559
g24
ssS'BADUM JAMES P'
p560
(dp561
g3
g5
sg4
I178980
sg6
I3486
sg7
I00
sg8
g5
sg9
g5
sg11
g5
sg12
g5
sg13
g24
sg14
g5
sg15
g5
sg16
g5
sg17
g5
sg18
g5
sg19
g5
sg20
g24
sg21
I257817
sg22
g5
sS'deferral_payments_log'
p562
F12.09503493393769
sg25
g5
sg26
g5
sg27
g5
sg28
I182466
sg29
I257817
sg30
g24
sS'deferred_income_log'
p563
g24
ssS'HUGHES JAMES A'
p564
(dp565
g3
I719
sg4
g5
sg6
g5
sg7
I00
sg8
g5
sg9
S'james.hughes@enron.com'
p566
sg11
g5
sg12
g5
sg13
g24
sg14
I589
sg15
g5
sg16
I34
sg17
g5
sg18
g5
sg19
g5
sg20
F0.8353253652058433
sg21
I1118394
sg22
I35
sS'deferral_payments_log'
p567
g24
sg25
I5
sg26
I363428
sg27
g5
sg28
I0
sg29
I754966
sg30
g24
sS'deferred_income_log'
p568
g24
ssS'REYNOLDS LAWRENCE'
p569
(dp570
g3
g5
sg4
I51365
sg6
I8409
sg7
I00
sg8
I-200000
sg9
g5
sg11
I156250
sg12
I-140264
sg13
F0.1936726028265416
sg14
g5
sg15
g5
sg16
g5
sg17
I202052
sg18
g5
sg19
I100000
sg20
g24
sg21
I4221891
sg22
g5
sS'deferral_payments_log'
p571
F10.846731753970541
sg25
g5
sg26
I201483
sg27
I76399
sg28
I394475
sg29
I4160672
sg30
F0.2535014893212498
sS'deferred_income_log'
p572
g24
ssS'DIMICHELE RICHARD G'
p573
(dp574
g3
g5
sg4
g5
sg6
I35812
sg7
I00
sg8
g5
sg9
S'richard.dimichele@enron.com'
p575
sg11
I694862
sg12
g5
sg13
F0.11096758610409556
sg14
g5
sg15
g5
sg16
g5
sg17
I374689
sg18
g5
sg19
I1000000
sg20
g24
sg21
I8317782
sg22
g5
sS'deferral_payments_log'
p576
g24
sg25
g5
sg26
I126027
sg27
I262788
sg28
I2368151
sg29
I8191755
sg30
F0.42227037042823706
sS'deferred_income_log'
p577
g24
ssS'BHATNAGAR SANJAY'
p578
(dp579
g3
I523
sg4
g5
sg6
g5
sg7
I00
sg8
g5
sg9
S'sanjay.bhatnagar@enron.com'
p580
sg11
g5
sg12
I15456290
sg13
g24
sg14
I463
sg15
g5
sg16
I29
sg17
I137864
sg18
I137864
sg19
g5
sg20
F0.8405797101449275
sS'total_stock_value'
p581
S'NaN'
p582
sg22
I0
sS'deferral_payments_log'
p583
g24
sg25
I1
sg26
I-2604490
sg27
g5
sg28
I15456290
sg29
I2604490
sg30
g24
sS'deferred_income_log'
p584
g24
ssS'CARTER REBECCA C'
p585
(dp586
g3
I312
sg4
g5
sg6
g5
sg7
I00
sg8
I-159792
sg9
S'rebecca.carter@enron.com'
p587
sg11
I75000
sg12
I-307301
sg13
F0.5482256568325875
sg14
I196
sg15
g5
sg16
I15
sg17
I540
sg18
g5
sg19
I300000
sg20
F0.709480122324159
sg21
g5
sg22
I29
sS'deferral_payments_log'
p588
g24
sg25
I7
sg26
I307301
sg27
I261809
sg28
I477557
sg29
g5
sg30
F0.6281972623163308
sS'deferred_income_log'
p589
g24
ssS'BUCHANAN HAROLD G'
p590
(dp591
g3
I1088
sg4
g5
sg6
I600
sg7
I00
sg8
g5
sg9
S'john.buchanan@enron.com'
p592
sg11
I304805
sg12
g5
sg13
F0.23516811945721608
sg14
I23
sg15
g5
sg16
I125
sg17
I1215
sg18
g5
sg19
I500000
sg20
F0.018961253091508656
sg21
I1014505
sg22
I0
sS'deferral_payments_log'
p593
g24
sg25
I0
sg26
I189041
sg27
I248017
sg28
I1054637
sg29
I825464
sg30
F0.47409677453000415
sS'deferred_income_log'
p594
g24
ssS'YEAP SOON'
p595
(dp596
g3
g5
sg4
g5
sg6
I55097
sg7
I00
sg8
g5
sg9
g5
sg11
g5
sg12
g5
sg13
g24
sg14
g5
sg15
g5
sg16
g5
sg17
g5
sg18
g5
sg19
g5
sg20
g24
sg21
I192758
sg22
g5
sS'deferral_payments_log'
p597
g24
sg25
g5
sg26
g5
sg27
g5
sg28
I55097
sg29
I192758
sg30
g24
sS'deferred_income_log'
p598
g24
ssS'MURRAY JULIA H'
p599
(dp600
g3
I2192
sg4
g5
sg6
I57580
sg7
I00
sg8
g5
sg9
S'julia.murray@enron.com'
p601
sg11
I125000
sg12
g5
sg13
F0.2823020115883644
sg14
I395
sg15
g5
sg16
I45
sg17
I330
sg18
g5
sg19
I400000
sg20
F0.1823871256146625
sg21
I597461
sg22
I11
sS'deferral_payments_log'
p602
g24
sg25
I2
sg26
I196983
sg27
I229284
sg28
I812194
sg29
I400478
sg30
F0.4924931728133919
sS'deferred_income_log'
p603
g24
ssS'GARLAND C KEVIN'
p604
(dp605
g3
I209
sg4
g5
sg6
I48405
sg7
I00
sg8
g5
sg9
S'kevin.garland@enron.com'
p606
sg11
I375304
sg12
g5
sg13
F0.14806932023551056
sg14
I178
sg15
g5
sg16
I44
sg17
I60814
sg18
g5
sg19
I850000
sg20
F0.849802371541502
sg21
I896153
sg22
I10
sS'deferral_payments_log'
p607
g24
sg25
I27
sg26
I259907
sg27
I231946
sg28
I1566469
sg29
I636246
sg30
F0.5426216541789208
sS'deferred_income_log'
p608
g24
ssS'DODSON KEITH'
p609
(dp610
g3
I176
sg4
g5
sg6
I28164
sg7
I00
sg8
g5
sg9
S'keith.dodson@enron.com'
p611
sg11
g5
sg12
g5
sg13
F0.6907617341947422
sg14
I114
sg15
g5
sg16
I14
sg17
I774
sg18
g5
sg19
I70000
sg20
F0.6684210526315789
sg21
g5
sg22
I10
sS'deferral_payments_log'
p612
g24
sg25
I3
sg26
g5
sg27
I221003
sg28
I319941
sg29
g5
sg30
F0.21879033946883958
sS'deferred_income_log'
p613
g24
ssS'YEAGER F SCOTT'
p614
(dp615
g3
g5
sg4
g5
sg6
I53947
sg7
I01
sg8
g5
sg9
S'scott.yeager@enron.com'
p616
sg11
g5
sg12
g5
sg13
F0.4396419650291424
sg14
g5
sg15
g5
sg16
g5
sg17
I147950
sg18
g5
sg19
g5
sg20
g24
sg21
I11884758
sg22
g5
sS'deferral_payments_log'
p617
g24
sg25
g5
sg26
I3576206
sg27
I158403
sg28
I360300
sg29
I8308552
sg30
g24
sS'deferred_income_log'
p618
g24
ssS'HIRKO JOSEPH'
p619
(dp620
g3
g5
sg4
I10259
sg6
I77978
sg7
I01
sg8
g5
sg9
S'joe.hirko@enron.com'
p621
sg11
g5
sg12
g5
sg13
g24
sg14
g5
sg15
g5
sg16
g5
sg17
I2856
sg18
g5
sg19
g5
sg20
g24
sg21
I30766064
sg22
g5
sS'deferral_payments_log'
p622
F9.23600811872476
sg25
g5
sg26
g5
sg27
g5
sg28
I91093
sg29
I30766064
sg30
g24
sS'deferred_income_log'
p623
g24
ssS'DIETRICH JANET R'
p624
(dp625
g3
I2572
sg4
g5
sg6
I3475
sg7
I00
sg8
g5
sg9
S'janet.dietrich@enron.com'
p626
sg11
I556416
sg12
g5
sg13
F0.1773175352224516
sg14
I1902
sg15
g5
sg16
I63
sg17
I473
sg18
g5
sg19
I600000
sg20
F0.8428842504743833
sg21
I1865087
sg22
I305
sS'deferral_payments_log'
p627
g24
sg25
I14
sg26
I315068
sg27
I250100
sg28
I1410464
sg29
I1550019
sg30
F0.4253919277627788
sS'deferred_income_log'
p628
g24
ssS'DERRICK JR. JAMES V'
p629
(dp630
g3
I2181
sg4
g5
sg6
I51124
sg7
I00
sg8
I-1284000
sg9
S'james.derrick@enron.com'
p631
sg11
I484000
sg12
I-1787380
sg13
F0.8936333557781484
sg14
I1401
sg15
g5
sg16
I909
sg17
I7482
sg18
g5
sg19
I800000
sg20
F0.48058252427184467
sg21
I8831913
sg22
I64
sS'deferral_payments_log'
p632
g24
sg25
I20
sg26
I1787380
sg27
I492375
sg28
I550981
sg29
I8831913
sg30
F1.4519556935720106
sS'deferred_income_log'
p633
g24
ssS'FREVERT MARK A'
p634
(dp635
g3
I3275
sg4
I6426990
sg6
I86987
sg7
I00
sg8
I-3367011
sg9
S'mark.frevert@enron.com'
p636
sg11
I1617011
sg12
g5
sg13
F0.06149428518599881
sg14
I2979
sg15
I2000000
sg16
I21
sg17
I7427621
sg18
g5
sg19
I2000000
sg20
F0.9790655339805825
sg21
I14622185
sg22
I242
sS'deferral_payments_log'
p637
F15.676017024010138
sg25
I6
sg26
I4188667
sg27
I1060932
sg28
I17252530
sg29
I10433518
sg30
F0.1159250266482655
sS'deferred_income_log'
p638
g24
ssS'PAI LOU L'
p639
(dp640
g3
g5
sg4
g5
sg6
I32047
sg7
I00
sg8
g5
sg9
S'lou.pai@enron.com'
p641
sg11
g5
sg12
g5
sg13
F0.08384466458324195
sg14
g5
sg15
g5
sg16
g5
sg17
I1829457
sg18
g5
sg19
I1000000
sg20
g24
sg21
I23817930
sg22
g5
sS'deferral_payments_log'
p642
g24
sg25
g5
sg26
I8453763
sg27
I261879
sg28
I3123383
sg29
I15364167
sg30
F0.3201656665224854
sS'deferred_income_log'
p643
g24
ssS'BAY FRANKLIN R'
p644
(dp645
g3
g5
sg4
I260455
sg6
I129142
sg7
I00
sg8
I-201641
sg9
S'frank.bay@enron.com'
p646
sg11
g5
sg12
I-82782
sg13
F0.2895640428369836
sg14
g5
sg15
g5
sg16
g5
sg17
I69
sg18
g5
sg19
I400000
sg20
g24
sg21
I63014
sg22
g5
sS'deferral_payments_log'
p647
F12.470189219959247
sg25
g5
sg26
I145796
sg27
I239671
sg28
I827696
sg29
g5
sg30
F0.48326921961686414
sS'deferred_income_log'
p648
g24
ssS'HAYSLETT RODERICK J'
p649
(dp650
g3
I2649
sg4
g5
sg6
g5
sg7
I00
sg8
g5
sg9
S'rod.hayslett@enron.com'
p651
sg11
g5
sg12
g5
sg13
g24
sg14
I571
sg15
g5
sg16
I1061
sg17
g5
sg18
g5
sg19
g5
sg20
F0.17358490566037735
sg21
I346663
sg22
I35
sS'deferral_payments_log'
p652
g24
sg25
I38
sg26
I346663
sg27
g5
sg28
I0
sg29
g5
sg30
g24
sS'deferred_income_log'
p653
g24
ssS'FUGH JOHN L'
p654
(dp655
g3
g5
sg4
I50591
sg6
g5
sg7
I00
sg8
g5
sg9
g5
sg11
g5
sg12
g5
sg13
g24
sg14
g5
sg15
g5
sg16
g5
sg17
g5
sg18
g5
sg19
g5
sg20
g24
sg21
I176378
sg22
g5
sS'deferral_payments_log'
p656
F10.831548740009199
sg25
g5
sg26
g5
sg27
g5
sg28
I50591
sg29
I176378
sg30
g24
sS'deferred_income_log'
p657
g24
ssS'FALLON JAMES B'
p658
(dp659
g3
I1755
sg4
g5
sg6
I95924
sg7
I00
sg8
g5
sg9
S'jim.fallon@enron.com'
p660
sg11
I374347
sg12
g5
sg13
F0.08285087886321722
sg14
I1604
sg15
g5
sg16
I75
sg17
I401481
sg18
g5
sg19
I2500000
sg20
F0.919672131147541
sg21
I2332399
sg22
I42
sS'deferral_payments_log'
p661
g24
sg25
I37
sg26
I1392142
sg27
I304588
sg28
I3676340
sg29
I940257
sg30
F0.6800241544579664
sS'deferred_income_log'
p662
g24
ssS'KOENIG MARK E'
p663
(dp664
g3
I2374
sg4
g5
sg6
I127017
sg7
I01
sg8
g5
sg9
S'mark.koenig@enron.com'
p665
sg11
I300000
sg12
g5
sg13
F0.19525129124535962
sg14
I2271
sg15
g5
sg16
I61
sg17
I150458
sg18
g5
sg19
I700000
sg20
F0.9605749486652977
sg21
I1920055
sg22
I53
sS'deferral_payments_log'
p666
g24
sg25
I15
sg26
I1248318
sg27
I309946
sg28
I1587421
sg29
I671737
sg30
F0.44096682606567505
sS'deferred_income_log'
p667
g24
ssS'SAVAGE FRANK'
p668
(dp669
g3
g5
sg4
g5
sg6
g5
sg7
I00
sg8
I-121284
sg9
g5
sg11
g5
sg12
g5
sg13
g24
sg14
g5
sg15
g5
sg16
g5
sg17
g5
sg18
I125034
sg19
g5
sg20
g24
sg21
g5
sg22
g5
sS'deferral_payments_log'
p670
g24
sg25
g5
sg26
g5
sg27
g5
sg28
I3750
sg29
g5
sg30
g24
sS'deferred_income_log'
p671
g24
ssS'IZZO LAWRENCE L'
p672
(dp673
g3
I496
sg4
g5
sg6
I28093
sg7
I00
sg8
g5
sg9
S'larry.izzo@enron.com'
p674
sg11
I312500
sg12
g5
sg13
F0.043076466107225916
sg14
I437
sg15
g5
sg16
I19
sg17
I1553729
sg18
g5
sg19
g5
sg20
F0.912621359223301
sg21
I5819980
sg22
I28
sS'deferral_payments_log'
p675
g24
sg25
I5
sg26
I3654808
sg27
I85274
sg28
I1979596
sg29
I2165172
sg30
g24
sS'deferred_income_log'
p676
g24
ssS'TILNEY ELIZABETH A'
p677
(dp678
g3
I460
sg4
g5
sg6
g5
sg7
I00
sg8
I-575000
sg9
S'elizabeth.tilney@enron.com'
p679
sg11
I275000
sg12
g5
sg13
F0.6192847646303266
sg14
I379
sg15
g5
sg16
I19
sg17
I152055
sg18
g5
sg19
I300000
sg20
F0.8350730688935282
sg21
I1168042
sg22
I10
sS'deferral_payments_log'
p680
g24
sg25
I11
sg26
I576792
sg27
I247338
sg28
I399393
sg29
I591250
sg30
F0.7511398547295521
sS'deferred_income_log'
p681
g24
ssS'MARTIN AMANDA K'
p682
(dp683
g3
I1522
sg4
I85430
sg6
I8211
sg7
I00
sg8
g5
sg9
S'a..martin@enron.com'
p684
sg11
I5145434
sg12
g5
sg13
F0.04157087366076144
sg14
I477
sg15
g5
sg16
I230
sg17
I2818454
sg18
g5
sg19
g5
sg20
F0.2768264840182648
sg21
I2070306
sg22
I8
sS'deferral_payments_log'
p685
F11.35546431156703
sg25
I0
sg26
g5
sg27
I349487
sg28
I8407016
sg29
I2070306
sg30
g24
sS'deferred_income_log'
p686
g24
ssS'BUY RICHARD B'
p687
(dp688
g3
I3523
sg4
I649584
sg6
g5
sg7
I00
sg8
I-694862
sg9
S'rick.buy@enron.com'
p689
sg11
I769862
sg12
g5
sg13
F0.14031740856865596
sg14
I2333
sg15
g5
sg16
I1053
sg17
I400572
sg18
g5
sg19
I900000
sg20
F0.5594405594405595
sg21
I3444470
sg22
I156
sS'deferral_payments_log'
p690
F13.384088976429997
sg25
I71
sg26
I901657
sg27
I330546
sg28
I2355702
sg29
I2542813
sg30
F0.38205171961479
sS'deferred_income_log'
p691
g24
ssS'GRAMM WENDY L'
p692
(dp693
g3
g5
sg4
g5
sg6
g5
sg7
I00
sg8
g5
sg9
g5
sg11
g5
sg12
g5
sg13
g24
sg14
g5
sg15
g5
sg16
g5
sg17
g5
sg18
I119292
sg19
g5
sg20
g24
sg21
g5
sg22
g5
sS'deferral_payments_log'
p694
g24
sg25
g5
sg26
g5
sg27
g5
sg28
I119292
sg29
g5
sg30
g24
sS'deferred_income_log'
p695
g24
ssS'CAUSEY RICHARD A'
p696
(dp697
g3
I1892
sg4
g5
sg6
I30674
sg7
I01
sg8
I-235000
sg9
S'richard.causey@enron.com'
p698
sg11
I350000
sg12
g5
sg13
F0.22217376460729532
sg14
I1585
sg15
g5
sg16
I49
sg17
I307895
sg18
g5
sg19
I1000000
sg20
F0.8526532715095312
sg21
I2502063
sg22
I58
sS'deferral_payments_log'
p699
g24
sg25
I12
sg26
I2502063
sg27
I415189
sg28
I1868758
sg29
g5
sg30
F0.5351147660638778
sS'deferred_income_log'
p700
g24
ssS'TAYLOR MITCHELL S'
p701
(dp702
g3
I533
sg4
I227449
sg6
g5
sg7
I00
sg8
g5
sg9
S'mitchell.taylor@enron.com'
p703
sg11
g5
sg12
g5
sg13
F0.24272259607948654
sg14
I300
sg15
g5
sg16
I29
sg17
g5
sg18
g5
sg19
I600000
sg20
F0.5338078291814946
sg21
I3745048
sg22
I0
sS'deferral_payments_log'
p704
F12.33468571299815
sg25
I0
sg26
I563798
sg27
I265214
sg28
I1092663
sg29
I3181250
sg30
F0.5491171568910085
sS'deferred_income_log'
p705
g24
ssS'DONAHUE JR JEFFREY M'
p706
(dp707
g3
I865
sg4
g5
sg6
I96268
sg7
I00
sg8
I-300000
sg9
S'jeff.donahue@enron.com'
p708
sg11
g5
sg12
g5
sg13
F0.3181248287201973
sg14
I772
sg15
g5
sg16
I22
sg17
I891
sg18
g5
sg19
I800000
sg20
F1.0947012401352876
sg21
I1080988
sg22
I188
sS'deferral_payments_log'
p709
g24
sg25
I11
sg26
I315068
sg27
I278601
sg28
I875760
sg29
I765920
sg30
F0.9134922809902256
sS'deferred_income_log'
p710
g24
ssS'GLISAN JR BEN F'
p711
(dp712
g3
I873
sg4
g5
sg6
I125978
sg7
I01
sg8
g5
sg9
S'ben.glisan@enron.com'
p713
sg11
I71023
sg12
g5
sg13
F0.21612705968164342
sg14
I874
sg15
g5
sg16
I16
sg17
I200308
sg18
g5
sg19
I600000
sg20
F1.048368953880765
sg21
I778546
sg22
I52
sS'deferral_payments_log'
p714
g24
sg25
I6
sg26
I393818
sg27
I274975
sg28
I1272284
sg29
I384728
sg30
F0.4715928204709012
sS'deferred_income_log'
p715
g24
ss.